target datalayout = "e-m:e-p270:32:32-p271:32:32-p272:64:64-i64:64-i128:128-f80:128-n8:16:32:64-S128"
target triple = "x86_64-pc-linux-gnu"

%struct._generic_N_Vector = type { ptr, ptr, ptr }
%struct._generic_N_Vector_Ops = type { ptr, ptr, ptr, ptr, ptr, ptr, ptr, ptr, ptr, ptr, ptr, ptr, ptr, ptr, ptr, ptr, ptr, ptr, ptr, ptr, ptr, ptr, ptr, ptr, ptr, ptr, ptr, ptr, ptr, ptr, ptr, ptr, ptr, ptr, ptr, ptr, ptr, ptr, ptr, ptr, ptr, ptr, ptr, ptr, ptr, ptr, ptr, ptr, ptr, ptr, ptr, ptr, ptr, ptr, ptr, ptr }
%struct._N_VectorContent_Serial = type { i64, i32, ptr }

; Function Attrs: nounwind uwtable
define ptr @N_VNewEmpty_Serial(i64 noundef %0, ptr noundef %1) #0 {
  %3 = alloca i64, align 8
  %4 = alloca ptr, align 8
  %5 = alloca ptr, align 8
  %6 = alloca ptr, align 8
  %7 = alloca ptr, align 8
  store i64 %0, ptr %3, align 8, !tbaa !3
  store ptr %1, ptr %4, align 8, !tbaa !7
  call void @llvm.lifetime.start.p0(i64 8, ptr %5) #6
  %8 = load ptr, ptr %4, align 8, !tbaa !7
  store ptr %8, ptr %5, align 8, !tbaa !7
  call void @llvm.lifetime.start.p0(i64 8, ptr %6) #6
  call void @llvm.lifetime.start.p0(i64 8, ptr %7) #6
  store ptr null, ptr %6, align 8, !tbaa !10
  %9 = load ptr, ptr %4, align 8, !tbaa !7
  %10 = call ptr @N_VNewEmpty(ptr noundef %9)
  store ptr %10, ptr %6, align 8, !tbaa !10
  %11 = load ptr, ptr %6, align 8, !tbaa !10
  %12 = getelementptr inbounds nuw %struct._generic_N_Vector, ptr %11, i32 0, i32 1
  %13 = load ptr, ptr %12, align 8, !tbaa !12
  %14 = getelementptr inbounds nuw %struct._generic_N_Vector_Ops, ptr %13, i32 0, i32 0
  store ptr @N_VGetVectorID_Serial, ptr %14, align 8, !tbaa !15
  %15 = load ptr, ptr %6, align 8, !tbaa !10
  %16 = getelementptr inbounds nuw %struct._generic_N_Vector, ptr %15, i32 0, i32 1
  %17 = load ptr, ptr %16, align 8, !tbaa !12
  %18 = getelementptr inbounds nuw %struct._generic_N_Vector_Ops, ptr %17, i32 0, i32 1
  store ptr @N_VClone_Serial, ptr %18, align 8, !tbaa !17
  %19 = load ptr, ptr %6, align 8, !tbaa !10
  %20 = getelementptr inbounds nuw %struct._generic_N_Vector, ptr %19, i32 0, i32 1
  %21 = load ptr, ptr %20, align 8, !tbaa !12
  %22 = getelementptr inbounds nuw %struct._generic_N_Vector_Ops, ptr %21, i32 0, i32 2
  store ptr @N_VCloneEmpty_Serial, ptr %22, align 8, !tbaa !18
  %23 = load ptr, ptr %6, align 8, !tbaa !10
  %24 = getelementptr inbounds nuw %struct._generic_N_Vector, ptr %23, i32 0, i32 1
  %25 = load ptr, ptr %24, align 8, !tbaa !12
  %26 = getelementptr inbounds nuw %struct._generic_N_Vector_Ops, ptr %25, i32 0, i32 3
  store ptr @N_VDestroy_Serial, ptr %26, align 8, !tbaa !19
  %27 = load ptr, ptr %6, align 8, !tbaa !10
  %28 = getelementptr inbounds nuw %struct._generic_N_Vector, ptr %27, i32 0, i32 1
  %29 = load ptr, ptr %28, align 8, !tbaa !12
  %30 = getelementptr inbounds nuw %struct._generic_N_Vector_Ops, ptr %29, i32 0, i32 4
  store ptr @N_VSpace_Serial, ptr %30, align 8, !tbaa !20
  %31 = load ptr, ptr %6, align 8, !tbaa !10
  %32 = getelementptr inbounds nuw %struct._generic_N_Vector, ptr %31, i32 0, i32 1
  %33 = load ptr, ptr %32, align 8, !tbaa !12
  %34 = getelementptr inbounds nuw %struct._generic_N_Vector_Ops, ptr %33, i32 0, i32 5
  store ptr @N_VGetArrayPointer_Serial, ptr %34, align 8, !tbaa !21
  %35 = load ptr, ptr %6, align 8, !tbaa !10
  %36 = getelementptr inbounds nuw %struct._generic_N_Vector, ptr %35, i32 0, i32 1
  %37 = load ptr, ptr %36, align 8, !tbaa !12
  %38 = getelementptr inbounds nuw %struct._generic_N_Vector_Ops, ptr %37, i32 0, i32 7
  store ptr @N_VSetArrayPointer_Serial, ptr %38, align 8, !tbaa !22
  %39 = load ptr, ptr %6, align 8, !tbaa !10
  %40 = getelementptr inbounds nuw %struct._generic_N_Vector, ptr %39, i32 0, i32 1
  %41 = load ptr, ptr %40, align 8, !tbaa !12
  %42 = getelementptr inbounds nuw %struct._generic_N_Vector_Ops, ptr %41, i32 0, i32 9
  store ptr @N_VGetLength_Serial, ptr %42, align 8, !tbaa !23
  %43 = load ptr, ptr %6, align 8, !tbaa !10
  %44 = getelementptr inbounds nuw %struct._generic_N_Vector, ptr %43, i32 0, i32 1
  %45 = load ptr, ptr %44, align 8, !tbaa !12
  %46 = getelementptr inbounds nuw %struct._generic_N_Vector_Ops, ptr %45, i32 0, i32 10
  store ptr @N_VGetLength_Serial, ptr %46, align 8, !tbaa !24
  %47 = load ptr, ptr %6, align 8, !tbaa !10
  %48 = getelementptr inbounds nuw %struct._generic_N_Vector, ptr %47, i32 0, i32 1
  %49 = load ptr, ptr %48, align 8, !tbaa !12
  %50 = getelementptr inbounds nuw %struct._generic_N_Vector_Ops, ptr %49, i32 0, i32 11
  store ptr @N_VLinearSum_Serial, ptr %50, align 8, !tbaa !25
  %51 = load ptr, ptr %6, align 8, !tbaa !10
  %52 = getelementptr inbounds nuw %struct._generic_N_Vector, ptr %51, i32 0, i32 1
  %53 = load ptr, ptr %52, align 8, !tbaa !12
  %54 = getelementptr inbounds nuw %struct._generic_N_Vector_Ops, ptr %53, i32 0, i32 12
  store ptr @N_VConst_Serial, ptr %54, align 8, !tbaa !26
  %55 = load ptr, ptr %6, align 8, !tbaa !10
  %56 = getelementptr inbounds nuw %struct._generic_N_Vector, ptr %55, i32 0, i32 1
  %57 = load ptr, ptr %56, align 8, !tbaa !12
  %58 = getelementptr inbounds nuw %struct._generic_N_Vector_Ops, ptr %57, i32 0, i32 13
  store ptr @N_VProd_Serial, ptr %58, align 8, !tbaa !27
  %59 = load ptr, ptr %6, align 8, !tbaa !10
  %60 = getelementptr inbounds nuw %struct._generic_N_Vector, ptr %59, i32 0, i32 1
  %61 = load ptr, ptr %60, align 8, !tbaa !12
  %62 = getelementptr inbounds nuw %struct._generic_N_Vector_Ops, ptr %61, i32 0, i32 14
  store ptr @N_VDiv_Serial, ptr %62, align 8, !tbaa !28
  %63 = load ptr, ptr %6, align 8, !tbaa !10
  %64 = getelementptr inbounds nuw %struct._generic_N_Vector, ptr %63, i32 0, i32 1
  %65 = load ptr, ptr %64, align 8, !tbaa !12
  %66 = getelementptr inbounds nuw %struct._generic_N_Vector_Ops, ptr %65, i32 0, i32 15
  store ptr @N_VScale_Serial, ptr %66, align 8, !tbaa !29
  %67 = load ptr, ptr %6, align 8, !tbaa !10
  %68 = getelementptr inbounds nuw %struct._generic_N_Vector, ptr %67, i32 0, i32 1
  %69 = load ptr, ptr %68, align 8, !tbaa !12
  %70 = getelementptr inbounds nuw %struct._generic_N_Vector_Ops, ptr %69, i32 0, i32 16
  store ptr @N_VAbs_Serial, ptr %70, align 8, !tbaa !30
  %71 = load ptr, ptr %6, align 8, !tbaa !10
  %72 = getelementptr inbounds nuw %struct._generic_N_Vector, ptr %71, i32 0, i32 1
  %73 = load ptr, ptr %72, align 8, !tbaa !12
  %74 = getelementptr inbounds nuw %struct._generic_N_Vector_Ops, ptr %73, i32 0, i32 17
  store ptr @N_VInv_Serial, ptr %74, align 8, !tbaa !31
  %75 = load ptr, ptr %6, align 8, !tbaa !10
  %76 = getelementptr inbounds nuw %struct._generic_N_Vector, ptr %75, i32 0, i32 1
  %77 = load ptr, ptr %76, align 8, !tbaa !12
  %78 = getelementptr inbounds nuw %struct._generic_N_Vector_Ops, ptr %77, i32 0, i32 18
  store ptr @N_VAddConst_Serial, ptr %78, align 8, !tbaa !32
  %79 = load ptr, ptr %6, align 8, !tbaa !10
  %80 = getelementptr inbounds nuw %struct._generic_N_Vector, ptr %79, i32 0, i32 1
  %81 = load ptr, ptr %80, align 8, !tbaa !12
  %82 = getelementptr inbounds nuw %struct._generic_N_Vector_Ops, ptr %81, i32 0, i32 19
  store ptr @N_VDotProd_Serial, ptr %82, align 8, !tbaa !33
  %83 = load ptr, ptr %6, align 8, !tbaa !10
  %84 = getelementptr inbounds nuw %struct._generic_N_Vector, ptr %83, i32 0, i32 1
  %85 = load ptr, ptr %84, align 8, !tbaa !12
  %86 = getelementptr inbounds nuw %struct._generic_N_Vector_Ops, ptr %85, i32 0, i32 20
  store ptr @N_VMaxNorm_Serial, ptr %86, align 8, !tbaa !34
  %87 = load ptr, ptr %6, align 8, !tbaa !10
  %88 = getelementptr inbounds nuw %struct._generic_N_Vector, ptr %87, i32 0, i32 1
  %89 = load ptr, ptr %88, align 8, !tbaa !12
  %90 = getelementptr inbounds nuw %struct._generic_N_Vector_Ops, ptr %89, i32 0, i32 22
  store ptr @N_VWrmsNormMask_Serial, ptr %90, align 8, !tbaa !35
  %91 = load ptr, ptr %6, align 8, !tbaa !10
  %92 = getelementptr inbounds nuw %struct._generic_N_Vector, ptr %91, i32 0, i32 1
  %93 = load ptr, ptr %92, align 8, !tbaa !12
  %94 = getelementptr inbounds nuw %struct._generic_N_Vector_Ops, ptr %93, i32 0, i32 21
  store ptr @N_VWrmsNorm_Serial, ptr %94, align 8, !tbaa !36
  %95 = load ptr, ptr %6, align 8, !tbaa !10
  %96 = getelementptr inbounds nuw %struct._generic_N_Vector, ptr %95, i32 0, i32 1
  %97 = load ptr, ptr %96, align 8, !tbaa !12
  %98 = getelementptr inbounds nuw %struct._generic_N_Vector_Ops, ptr %97, i32 0, i32 23
  store ptr @N_VMin_Serial, ptr %98, align 8, !tbaa !37
  %99 = load ptr, ptr %6, align 8, !tbaa !10
  %100 = getelementptr inbounds nuw %struct._generic_N_Vector, ptr %99, i32 0, i32 1
  %101 = load ptr, ptr %100, align 8, !tbaa !12
  %102 = getelementptr inbounds nuw %struct._generic_N_Vector_Ops, ptr %101, i32 0, i32 24
  store ptr @N_VWL2Norm_Serial, ptr %102, align 8, !tbaa !38
  %103 = load ptr, ptr %6, align 8, !tbaa !10
  %104 = getelementptr inbounds nuw %struct._generic_N_Vector, ptr %103, i32 0, i32 1
  %105 = load ptr, ptr %104, align 8, !tbaa !12
  %106 = getelementptr inbounds nuw %struct._generic_N_Vector_Ops, ptr %105, i32 0, i32 25
  store ptr @N_VL1Norm_Serial, ptr %106, align 8, !tbaa !39
  %107 = load ptr, ptr %6, align 8, !tbaa !10
  %108 = getelementptr inbounds nuw %struct._generic_N_Vector, ptr %107, i32 0, i32 1
  %109 = load ptr, ptr %108, align 8, !tbaa !12
  %110 = getelementptr inbounds nuw %struct._generic_N_Vector_Ops, ptr %109, i32 0, i32 26
  store ptr @N_VCompare_Serial, ptr %110, align 8, !tbaa !40
  %111 = load ptr, ptr %6, align 8, !tbaa !10
  %112 = getelementptr inbounds nuw %struct._generic_N_Vector, ptr %111, i32 0, i32 1
  %113 = load ptr, ptr %112, align 8, !tbaa !12
  %114 = getelementptr inbounds nuw %struct._generic_N_Vector_Ops, ptr %113, i32 0, i32 27
  store ptr @N_VInvTest_Serial, ptr %114, align 8, !tbaa !41
  %115 = load ptr, ptr %6, align 8, !tbaa !10
  %116 = getelementptr inbounds nuw %struct._generic_N_Vector, ptr %115, i32 0, i32 1
  %117 = load ptr, ptr %116, align 8, !tbaa !12
  %118 = getelementptr inbounds nuw %struct._generic_N_Vector_Ops, ptr %117, i32 0, i32 28
  store ptr @N_VConstrMask_Serial, ptr %118, align 8, !tbaa !42
  %119 = load ptr, ptr %6, align 8, !tbaa !10
  %120 = getelementptr inbounds nuw %struct._generic_N_Vector, ptr %119, i32 0, i32 1
  %121 = load ptr, ptr %120, align 8, !tbaa !12
  %122 = getelementptr inbounds nuw %struct._generic_N_Vector_Ops, ptr %121, i32 0, i32 29
  store ptr @N_VMinQuotient_Serial, ptr %122, align 8, !tbaa !43
  %123 = load ptr, ptr %6, align 8, !tbaa !10
  %124 = getelementptr inbounds nuw %struct._generic_N_Vector, ptr %123, i32 0, i32 1
  %125 = load ptr, ptr %124, align 8, !tbaa !12
  %126 = getelementptr inbounds nuw %struct._generic_N_Vector_Ops, ptr %125, i32 0, i32 40
  store ptr @N_VDotProd_Serial, ptr %126, align 8, !tbaa !44
  %127 = load ptr, ptr %6, align 8, !tbaa !10
  %128 = getelementptr inbounds nuw %struct._generic_N_Vector, ptr %127, i32 0, i32 1
  %129 = load ptr, ptr %128, align 8, !tbaa !12
  %130 = getelementptr inbounds nuw %struct._generic_N_Vector_Ops, ptr %129, i32 0, i32 41
  store ptr @N_VMaxNorm_Serial, ptr %130, align 8, !tbaa !45
  %131 = load ptr, ptr %6, align 8, !tbaa !10
  %132 = getelementptr inbounds nuw %struct._generic_N_Vector, ptr %131, i32 0, i32 1
  %133 = load ptr, ptr %132, align 8, !tbaa !12
  %134 = getelementptr inbounds nuw %struct._generic_N_Vector_Ops, ptr %133, i32 0, i32 42
  store ptr @N_VMin_Serial, ptr %134, align 8, !tbaa !46
  %135 = load ptr, ptr %6, align 8, !tbaa !10
  %136 = getelementptr inbounds nuw %struct._generic_N_Vector, ptr %135, i32 0, i32 1
  %137 = load ptr, ptr %136, align 8, !tbaa !12
  %138 = getelementptr inbounds nuw %struct._generic_N_Vector_Ops, ptr %137, i32 0, i32 43
  store ptr @N_VL1Norm_Serial, ptr %138, align 8, !tbaa !47
  %139 = load ptr, ptr %6, align 8, !tbaa !10
  %140 = getelementptr inbounds nuw %struct._generic_N_Vector, ptr %139, i32 0, i32 1
  %141 = load ptr, ptr %140, align 8, !tbaa !12
  %142 = getelementptr inbounds nuw %struct._generic_N_Vector_Ops, ptr %141, i32 0, i32 44
  store ptr @N_VInvTest_Serial, ptr %142, align 8, !tbaa !48
  %143 = load ptr, ptr %6, align 8, !tbaa !10
  %144 = getelementptr inbounds nuw %struct._generic_N_Vector, ptr %143, i32 0, i32 1
  %145 = load ptr, ptr %144, align 8, !tbaa !12
  %146 = getelementptr inbounds nuw %struct._generic_N_Vector_Ops, ptr %145, i32 0, i32 45
  store ptr @N_VConstrMask_Serial, ptr %146, align 8, !tbaa !49
  %147 = load ptr, ptr %6, align 8, !tbaa !10
  %148 = getelementptr inbounds nuw %struct._generic_N_Vector, ptr %147, i32 0, i32 1
  %149 = load ptr, ptr %148, align 8, !tbaa !12
  %150 = getelementptr inbounds nuw %struct._generic_N_Vector_Ops, ptr %149, i32 0, i32 46
  store ptr @N_VMinQuotient_Serial, ptr %150, align 8, !tbaa !50
  %151 = load ptr, ptr %6, align 8, !tbaa !10
  %152 = getelementptr inbounds nuw %struct._generic_N_Vector, ptr %151, i32 0, i32 1
  %153 = load ptr, ptr %152, align 8, !tbaa !12
  %154 = getelementptr inbounds nuw %struct._generic_N_Vector_Ops, ptr %153, i32 0, i32 47
  store ptr @N_VWSqrSumLocal_Serial, ptr %154, align 8, !tbaa !51
  %155 = load ptr, ptr %6, align 8, !tbaa !10
  %156 = getelementptr inbounds nuw %struct._generic_N_Vector, ptr %155, i32 0, i32 1
  %157 = load ptr, ptr %156, align 8, !tbaa !12
  %158 = getelementptr inbounds nuw %struct._generic_N_Vector_Ops, ptr %157, i32 0, i32 48
  store ptr @N_VWSqrSumMaskLocal_Serial, ptr %158, align 8, !tbaa !52
  %159 = load ptr, ptr %6, align 8, !tbaa !10
  %160 = getelementptr inbounds nuw %struct._generic_N_Vector, ptr %159, i32 0, i32 1
  %161 = load ptr, ptr %160, align 8, !tbaa !12
  %162 = getelementptr inbounds nuw %struct._generic_N_Vector_Ops, ptr %161, i32 0, i32 49
  store ptr @N_VDotProdMulti_Serial, ptr %162, align 8, !tbaa !53
  %163 = load ptr, ptr %6, align 8, !tbaa !10
  %164 = getelementptr inbounds nuw %struct._generic_N_Vector, ptr %163, i32 0, i32 1
  %165 = load ptr, ptr %164, align 8, !tbaa !12
  %166 = getelementptr inbounds nuw %struct._generic_N_Vector_Ops, ptr %165, i32 0, i32 51
  store ptr @N_VBufSize_Serial, ptr %166, align 8, !tbaa !54
  %167 = load ptr, ptr %6, align 8, !tbaa !10
  %168 = getelementptr inbounds nuw %struct._generic_N_Vector, ptr %167, i32 0, i32 1
  %169 = load ptr, ptr %168, align 8, !tbaa !12
  %170 = getelementptr inbounds nuw %struct._generic_N_Vector_Ops, ptr %169, i32 0, i32 52
  store ptr @N_VBufPack_Serial, ptr %170, align 8, !tbaa !55
  %171 = load ptr, ptr %6, align 8, !tbaa !10
  %172 = getelementptr inbounds nuw %struct._generic_N_Vector, ptr %171, i32 0, i32 1
  %173 = load ptr, ptr %172, align 8, !tbaa !12
  %174 = getelementptr inbounds nuw %struct._generic_N_Vector_Ops, ptr %173, i32 0, i32 53
  store ptr @N_VBufUnpack_Serial, ptr %174, align 8, !tbaa !56
  %175 = load ptr, ptr %6, align 8, !tbaa !10
  %176 = getelementptr inbounds nuw %struct._generic_N_Vector, ptr %175, i32 0, i32 1
  %177 = load ptr, ptr %176, align 8, !tbaa !12
  %178 = getelementptr inbounds nuw %struct._generic_N_Vector_Ops, ptr %177, i32 0, i32 54
  store ptr @N_VPrint_Serial, ptr %178, align 8, !tbaa !57
  %179 = load ptr, ptr %6, align 8, !tbaa !10
  %180 = getelementptr inbounds nuw %struct._generic_N_Vector, ptr %179, i32 0, i32 1
  %181 = load ptr, ptr %180, align 8, !tbaa !12
  %182 = getelementptr inbounds nuw %struct._generic_N_Vector_Ops, ptr %181, i32 0, i32 55
  store ptr @N_VPrintFile_Serial, ptr %182, align 8, !tbaa !58
  store ptr null, ptr %7, align 8, !tbaa !59
  %183 = call noalias ptr @malloc(i64 noundef 24) #7
  store ptr %183, ptr %7, align 8, !tbaa !59
  %184 = load ptr, ptr %7, align 8, !tbaa !59
  %185 = load ptr, ptr %6, align 8, !tbaa !10
  %186 = getelementptr inbounds nuw %struct._generic_N_Vector, ptr %185, i32 0, i32 0
  store ptr %184, ptr %186, align 8, !tbaa !61
  %187 = load i64, ptr %3, align 8, !tbaa !3
  %188 = load ptr, ptr %7, align 8, !tbaa !59
  %189 = getelementptr inbounds nuw %struct._N_VectorContent_Serial, ptr %188, i32 0, i32 0
  store i64 %187, ptr %189, align 8, !tbaa !62
  %190 = load ptr, ptr %7, align 8, !tbaa !59
  %191 = getelementptr inbounds nuw %struct._N_VectorContent_Serial, ptr %190, i32 0, i32 1
  store i32 0, ptr %191, align 8, !tbaa !66
  %192 = load ptr, ptr %7, align 8, !tbaa !59
  %193 = getelementptr inbounds nuw %struct._N_VectorContent_Serial, ptr %192, i32 0, i32 2
  store ptr null, ptr %193, align 8, !tbaa !67
  %194 = load ptr, ptr %6, align 8, !tbaa !10
  call void @llvm.lifetime.end.p0(i64 8, ptr %7) #6
  call void @llvm.lifetime.end.p0(i64 8, ptr %6) #6
  call void @llvm.lifetime.end.p0(i64 8, ptr %5) #6
  ret ptr %194
}

; Function Attrs: nounwind uwtable
define ptr @N_VNew_Serial(i64 noundef %0, ptr noundef %1) #0 {
  %3 = alloca i64, align 8
  %4 = alloca ptr, align 8
  %5 = alloca ptr, align 8
  %6 = alloca ptr, align 8
  %7 = alloca ptr, align 8
  store i64 %0, ptr %3, align 8, !tbaa !3
  store ptr %1, ptr %4, align 8, !tbaa !7
  call void @llvm.lifetime.start.p0(i64 8, ptr %5) #6
  %8 = load ptr, ptr %4, align 8, !tbaa !7
  store ptr %8, ptr %5, align 8, !tbaa !7
  call void @llvm.lifetime.start.p0(i64 8, ptr %6) #6
  call void @llvm.lifetime.start.p0(i64 8, ptr %7) #6
  store ptr null, ptr %6, align 8, !tbaa !10
  %9 = load i64, ptr %3, align 8, !tbaa !3
  %10 = load ptr, ptr %4, align 8, !tbaa !7
  %11 = call ptr @N_VNewEmpty_Serial(i64 noundef %9, ptr noundef %10)
  store ptr %11, ptr %6, align 8, !tbaa !10
  store ptr null, ptr %7, align 8, !tbaa !69
  %12 = load i64, ptr %3, align 8, !tbaa !3
  %13 = icmp sgt i64 %12, 0
  br i1 %13, label %14, label %18

14:                                               ; preds = %2
  %15 = load i64, ptr %3, align 8, !tbaa !3
  %16 = mul i64 %15, 8
  %17 = call noalias ptr @malloc(i64 noundef %16) #7
  store ptr %17, ptr %7, align 8, !tbaa !69
  br label %18

18:                                               ; preds = %14, %2
  %19 = load ptr, ptr %6, align 8, !tbaa !10
  %20 = getelementptr inbounds nuw %struct._generic_N_Vector, ptr %19, i32 0, i32 0
  %21 = load ptr, ptr %20, align 8, !tbaa !61
  %22 = getelementptr inbounds nuw %struct._N_VectorContent_Serial, ptr %21, i32 0, i32 1
  store i32 1, ptr %22, align 8, !tbaa !66
  %23 = load ptr, ptr %7, align 8, !tbaa !69
  %24 = load ptr, ptr %6, align 8, !tbaa !10
  %25 = getelementptr inbounds nuw %struct._generic_N_Vector, ptr %24, i32 0, i32 0
  %26 = load ptr, ptr %25, align 8, !tbaa !61
  %27 = getelementptr inbounds nuw %struct._N_VectorContent_Serial, ptr %26, i32 0, i32 2
  store ptr %23, ptr %27, align 8, !tbaa !67
  %28 = load ptr, ptr %6, align 8, !tbaa !10
  call void @llvm.lifetime.end.p0(i64 8, ptr %7) #6
  call void @llvm.lifetime.end.p0(i64 8, ptr %6) #6
  call void @llvm.lifetime.end.p0(i64 8, ptr %5) #6
  ret ptr %28
}