; Function Attrs: nounwind uwtable
define ptr @N_VNew_Serial(i64 noundef %0, ptr noundef %1) local_unnamed_addr #0 {
  %3 = tail call ptr @N_VNewEmpty(ptr noundef %1) #20
  %4 = getelementptr inbounds nuw i8, ptr %3, i64 8
  %5 = load ptr, ptr %4, align 8, !tbaa !3
  store ptr @N_VGetVectorID_Serial, ptr %5, align 8, !tbaa !10
  %6 = getelementptr inbounds nuw i8, ptr %5, i64 8
  store ptr @N_VClone_Serial, ptr %6, align 8, !tbaa !12
  %7 = getelementptr inbounds nuw i8, ptr %5, i64 16
  store ptr @N_VCloneEmpty_Serial, ptr %7, align 8, !tbaa !13
  %8 = getelementptr inbounds nuw i8, ptr %5, i64 24
  store ptr @N_VDestroy_Serial, ptr %8, align 8, !tbaa !14
  %9 = getelementptr inbounds nuw i8, ptr %5, i64 32
  store ptr @N_VSpace_Serial, ptr %9, align 8, !tbaa !15
  %10 = getelementptr inbounds nuw i8, ptr %5, i64 40
  store ptr @N_VGetArrayPointer_Serial, ptr %10, align 8, !tbaa !16
  %11 = getelementptr inbounds nuw i8, ptr %5, i64 56
  store ptr @N_VSetArrayPointer_Serial, ptr %11, align 8, !tbaa !17
  %12 = getelementptr inbounds nuw i8, ptr %5, i64 72
  store ptr @N_VGetLength_Serial, ptr %12, align 8, !tbaa !18
  %13 = getelementptr inbounds nuw i8, ptr %5, i64 80
  store ptr @N_VGetLength_Serial, ptr %13, align 8, !tbaa !19
  %14 = getelementptr inbounds nuw i8, ptr %5, i64 88
  store ptr @N_VLinearSum_Serial, ptr %14, align 8, !tbaa !20
  %15 = getelementptr inbounds nuw i8, ptr %5, i64 96
  store ptr @N_VConst_Serial, ptr %15, align 8, !tbaa !21
  %16 = getelementptr inbounds nuw i8, ptr %5, i64 104
  store ptr @N_VProd_Serial, ptr %16, align 8, !tbaa !22
  %17 = getelementptr inbounds nuw i8, ptr %5, i64 112
  store ptr @N_VDiv_Serial, ptr %17, align 8, !tbaa !23
  %18 = getelementptr inbounds nuw i8, ptr %5, i64 120
  store ptr @N_VScale_Serial, ptr %18, align 8, !tbaa !24
  %19 = getelementptr inbounds nuw i8, ptr %5, i64 128
  store ptr @N_VAbs_Serial, ptr %19, align 8, !tbaa !25
  %20 = getelementptr inbounds nuw i8, ptr %5, i64 136
  store ptr @N_VInv_Serial, ptr %20, align 8, !tbaa !26
  %21 = getelementptr inbounds nuw i8, ptr %5, i64 144
  store ptr @N_VAddConst_Serial, ptr %21, align 8, !tbaa !27
  %22 = getelementptr inbounds nuw i8, ptr %5, i64 152
  store ptr @N_VDotProd_Serial, ptr %22, align 8, !tbaa !28
  %23 = getelementptr inbounds nuw i8, ptr %5, i64 160
  store ptr @N_VMaxNorm_Serial, ptr %23, align 8, !tbaa !29
  %24 = getelementptr inbounds nuw i8, ptr %5, i64 176
  store ptr @N_VWrmsNormMask_Serial, ptr %24, align 8, !tbaa !30
  %25 = getelementptr inbounds nuw i8, ptr %5, i64 168
  store ptr @N_VWrmsNorm_Serial, ptr %25, align 8, !tbaa !31
  %26 = getelementptr inbounds nuw i8, ptr %5, i64 184
  store ptr @N_VMin_Serial, ptr %26, align 8, !tbaa !32
  %27 = getelementptr inbounds nuw i8, ptr %5, i64 192
  store ptr @N_VWL2Norm_Serial, ptr %27, align 8, !tbaa !33
  %28 = getelementptr inbounds nuw i8, ptr %5, i64 200
  store ptr @N_VL1Norm_Serial, ptr %28, align 8, !tbaa !34
  %29 = getelementptr inbounds nuw i8, ptr %5, i64 208
  store ptr @N_VCompare_Serial, ptr %29, align 8, !tbaa !35
  %30 = getelementptr inbounds nuw i8, ptr %5, i64 216
  store ptr @N_VInvTest_Serial, ptr %30, align 8, !tbaa !36
  %31 = getelementptr inbounds nuw i8, ptr %5, i64 224
  store ptr @N_VConstrMask_Serial, ptr %31, align 8, !tbaa !37
  %32 = getelementptr inbounds nuw i8, ptr %5, i64 232
  store ptr @N_VMinQuotient_Serial, ptr %32, align 8, !tbaa !38
  %33 = getelementptr inbounds nuw i8, ptr %5, i64 320
  store ptr @N_VDotProd_Serial, ptr %33, align 8, !tbaa !39
  %34 = getelementptr inbounds nuw i8, ptr %5, i64 328
  store ptr @N_VMaxNorm_Serial, ptr %34, align 8, !tbaa !40
  %35 = getelementptr inbounds nuw i8, ptr %5, i64 336
  store ptr @N_VMin_Serial, ptr %35, align 8, !tbaa !41
  %36 = getelementptr inbounds nuw i8, ptr %5, i64 344
  store ptr @N_VL1Norm_Serial, ptr %36, align 8, !tbaa !42
  %37 = getelementptr inbounds nuw i8, ptr %5, i64 352
  store ptr @N_VInvTest_Serial, ptr %37, align 8, !tbaa !43
  %38 = getelementptr inbounds nuw i8, ptr %5, i64 360
  store ptr @N_VConstrMask_Serial, ptr %38, align 8, !tbaa !44
  %39 = getelementptr inbounds nuw i8, ptr %5, i64 368
  store ptr @N_VMinQuotient_Serial, ptr %39, align 8, !tbaa !45
  %40 = getelementptr inbounds nuw i8, ptr %5, i64 376
  store ptr @N_VWSqrSumLocal_Serial, ptr %40, align 8, !tbaa !46
  %41 = getelementptr inbounds nuw i8, ptr %5, i64 384
  store ptr @N_VWSqrSumMaskLocal_Serial, ptr %41, align 8, !tbaa !47
  %42 = getelementptr inbounds nuw i8, ptr %5, i64 392
  store ptr @N_VDotProdMulti_Serial, ptr %42, align 8, !tbaa !48
  %43 = getelementptr inbounds nuw i8, ptr %5, i64 408
  store ptr @N_VBufSize_Serial, ptr %43, align 8, !tbaa !49
  %44 = getelementptr inbounds nuw i8, ptr %5, i64 416
  store ptr @N_VBufPack_Serial, ptr %44, align 8, !tbaa !50
  %45 = getelementptr inbounds nuw i8, ptr %5, i64 424
  store ptr @N_VBufUnpack_Serial, ptr %45, align 8, !tbaa !51
  %46 = getelementptr inbounds nuw i8, ptr %5, i64 432
  store ptr @N_VPrint_Serial, ptr %46, align 8, !tbaa !52
  %47 = getelementptr inbounds nuw i8, ptr %5, i64 440
  store ptr @N_VPrintFile_Serial, ptr %47, align 8, !tbaa !53
  %48 = tail call noalias dereferenceable_or_null(24) ptr @malloc(i64 noundef 24) #21
  store ptr %48, ptr %3, align 8, !tbaa !54
  store i64 %0, ptr %48, align 8, !tbaa !55
  %49 = icmp sgt i64 %0, 0
  br i1 %49, label %50, label %53

50:                                               ; preds = %2
  %51 = shl i64 %0, 3
  %52 = tail call noalias ptr @malloc(i64 noundef %51) #21
  br label %53

53:                                               ; preds = %50, %2
  %.0 = phi ptr [ %52, %50 ], [ null, %2 ]
  %54 = getelementptr inbounds nuw i8, ptr %48, i64 16
  %55 = getelementptr inbounds nuw i8, ptr %48, i64 8
  store i32 1, ptr %55, align 8, !tbaa !60
  store ptr %.0, ptr %54, align 8, !tbaa !61
  ret ptr %3
}